target datalayout = "e-m:e-p270:32:32-p271:32:32-p272:64:64-i64:64-i128:128-f80:128-n8:16:32:64-S128"
target triple = "x86_64-pc-linux-gnu"

%struct.ident_t = type { i32, i32, i32, i32, ptr }

@1 = private unnamed_addr constant %struct.ident_t { i32 0, i32 514, i32 0, i32 22, ptr @0 }, align 8

; Function Attrs: noreturn nounwind uwtable
define linkonce_odr hidden void @__clang_call_terminate(ptr noundef %0) #6 comdat {
  %2 = call ptr @__cxa_begin_catch(ptr %0) #8
  call void @_ZSt9terminatev() #20
  unreachable
}

; Function Attrs: mustprogress nounwind uwtable
define linkonce_odr noundef float @_ZSt5roundf(float noundef %0) #0 comdat {
  %2 = alloca float, align 4
  store float %0, ptr %2, align 4
  %3 = load float, ptr %2, align 4
  %4 = call float @llvm.round.f32(float %3)
  ret float %4
}

; Function Attrs: norecurse nounwind uwtable
define internal void @_ZNK5faiss15IndexBinaryHNSW6searchElPKhlPiPlPKNS_16SearchParametersE.omp_outlined.5(ptr noalias noundef %0, ptr noalias noundef %1, ptr noundef nonnull align 8 dereferenceable(8) %2, ptr noundef nonnull align 8 dereferenceable(8) %3, ptr noundef nonnull align 8 dereferenceable(8) %4, ptr noundef nonnull align 8 dereferenceable(8) %5) #7 personality ptr @__gxx_personality_v0 {
  %7 = alloca ptr, align 8
  %8 = alloca ptr, align 8
  %9 = alloca ptr, align 8
  %10 = alloca ptr, align 8
  %11 = alloca ptr, align 8
  %12 = alloca ptr, align 8
  %13 = alloca i32, align 4
  %14 = alloca i64, align 8
  %15 = alloca i32, align 4
  %16 = alloca i32, align 4
  %17 = alloca i32, align 4
  %18 = alloca i32, align 4
  %19 = alloca i32, align 4
  %20 = alloca i32, align 4
  %21 = alloca i32, align 4
  store ptr %0, ptr %7, align 8
  store ptr %1, ptr %8, align 8
  store ptr %2, ptr %9, align 8
  store ptr %3, ptr %10, align 8
  store ptr %4, ptr %11, align 8
  store ptr %5, ptr %12, align 8
  %22 = load ptr, ptr %9, align 8
  %23 = load ptr, ptr %10, align 8
  %24 = load ptr, ptr %11, align 8
  %25 = load ptr, ptr %12, align 8
  %26 = load i64, ptr %23, align 8
  %27 = load i64, ptr %22, align 8
  %28 = mul nsw i64 %26, %27
  store i64 %28, ptr %14, align 8
  %29 = load i64, ptr %14, align 8
  %30 = sub nsw i64 %29, 0
  %31 = sdiv i64 %30, 1
  %32 = trunc i64 %31 to i32
  %33 = sub nsw i32 %32, 1
  store i32 %33, ptr %15, align 4
  store i32 0, ptr %16, align 4
  %34 = load i64, ptr %14, align 8
  %35 = icmp slt i64 0, %34
  br i1 %35, label %36, label %78

36:                                               ; preds = %6
  store i32 0, ptr %17, align 4
  %37 = load i32, ptr %15, align 4
  store i32 %37, ptr %18, align 4
  store i32 1, ptr %19, align 4
  store i32 0, ptr %20, align 4
  %38 = load ptr, ptr %7, align 8
  %39 = load i32, ptr %38, align 4
  call void @__kmpc_for_static_init_4(ptr @1, i32 %39, i32 34, ptr %20, ptr %17, ptr %18, ptr %19, i32 1, i32 1)
  %40 = load i32, ptr %18, align 4
  %41 = load i32, ptr %15, align 4
  %42 = icmp sgt i32 %40, %41
  br i1 %42, label %43, label %45

43:                                               ; preds = %36
  %44 = load i32, ptr %15, align 4
  br label %47

45:                                               ; preds = %36
  %46 = load i32, ptr %18, align 4
  br label %47

47:                                               ; preds = %45, %43
  %48 = phi i32 [ %44, %43 ], [ %46, %45 ]
  store i32 %48, ptr %18, align 4
  %49 = load i32, ptr %17, align 4
  store i32 %49, ptr %13, align 4
  br label %50

50:                                               ; preds = %71, %47
  %51 = load i32, ptr %13, align 4
  %52 = load i32, ptr %18, align 4
  %53 = icmp sle i32 %51, %52
  br i1 %53, label %54, label %74

54:                                               ; preds = %50
  %55 = load i32, ptr %13, align 4
  %56 = mul nsw i32 %55, 1
  %57 = add nsw i32 0, %56
  store i32 %57, ptr %21, align 4
  %58 = load ptr, ptr %25, align 8
  %59 = load i32, ptr %21, align 4
  %60 = sext i32 %59 to i64
  %61 = getelementptr inbounds float, ptr %58, i64 %60
  %62 = load float, ptr %61, align 4
  %63 = invoke noundef float @_ZSt5roundf(float noundef %62)
          to label %64 unwind label %79

64:                                               ; preds = %54
  %65 = fptosi float %63 to i32
  %66 = load ptr, ptr %24, align 8
  %67 = load i32, ptr %21, align 4
  %68 = sext i32 %67 to i64
  %69 = getelementptr inbounds i32, ptr %66, i64 %68
  store i32 %65, ptr %69, align 4
  br label %70

70:                                               ; preds = %64
  br label %71

71:                                               ; preds = %70
  %72 = load i32, ptr %13, align 4
  %73 = add nsw i32 %72, 1
  store i32 %73, ptr %13, align 4
  br label %50

74:                                               ; preds = %50
  br label %75

75:                                               ; preds = %74
  %76 = load ptr, ptr %7, align 8
  %77 = load i32, ptr %76, align 4
  call void @__kmpc_for_static_fini(ptr @1, i32 %77)
  br label %78

78:                                               ; preds = %75, %6
  ret void

79:                                               ; preds = %54
  %80 = landingpad { ptr, i32 }
          catch ptr null
  %81 = extractvalue { ptr, i32 } %80, 0
  call void @__clang_call_terminate(ptr %81) #20
  unreachable
}