; Function Attrs: norecurse nounwind uwtable
define internal void @_ZNK5faiss15IndexBinaryHNSW6searchElPKhlPiPlPKNS_16SearchParametersE.omp_outlined.5(ptr noalias nocapture noundef readonly %0, ptr noalias nocapture readnone %1, ptr nocapture noundef nonnull readonly align 8 dereferenceable(8) %2, ptr nocapture noundef nonnull readonly align 8 dereferenceable(8) %3, ptr nocapture noundef nonnull readonly align 8 dereferenceable(8) %4, ptr nocapture noundef nonnull readonly align 8 dereferenceable(8) %5) #8 personality ptr @__gxx_personality_v0 {
  %7 = alloca i32, align 4
  %8 = alloca i32, align 4
  %9 = alloca i32, align 4
  %10 = alloca i32, align 4
  %11 = load i64, ptr %3, align 8
  %12 = load i64, ptr %2, align 8
  %13 = mul nsw i64 %12, %11
  %14 = icmp sgt i64 %13, 0
  br i1 %14, label %15, label %32

15:                                               ; preds = %6
  %16 = trunc i64 %13 to i32
  %17 = add nsw i32 %16, -1
  store i32 0, ptr %7, align 4
  store i32 %17, ptr %8, align 4
  store i32 1, ptr %9, align 4
  store i32 0, ptr %10, align 4
  %18 = load i32, ptr %0, align 4
  call void @__kmpc_for_static_init_4(ptr nonnull @1, i32 %18, i32 34, ptr nonnull %10, ptr nonnull %7, ptr nonnull %8, ptr nonnull %9, i32 1, i32 1)
  %19 = load i32, ptr %8, align 4
  %20 = call i32 @llvm.smin.i32(i32 %19, i32 %17)
  store i32 %20, ptr %8, align 4
  %21 = load i32, ptr %7, align 4
  %.not15 = icmp sgt i32 %21, %20
  br i1 %.not15, label %._crit_edge, label %.lr.ph.preheader

.lr.ph.preheader:                                 ; preds = %15
  %22 = sext i32 %21 to i64
  br label %.lr.ph

.lr.ph:                                           ; preds = %.lr.ph.preheader, %.lr.ph
  %indvars.iv = phi i64 [ %22, %.lr.ph.preheader ], [ %indvars.iv.next, %.lr.ph ]
  %23 = load ptr, ptr %5, align 8
  %24 = getelementptr inbounds float, ptr %23, i64 %indvars.iv
  %25 = load float, ptr %24, align 4
  %26 = call noundef float @llvm.round.f32(float %25)
  %27 = fptosi float %26 to i32
  %28 = load ptr, ptr %4, align 8
  %29 = getelementptr inbounds i32, ptr %28, i64 %indvars.iv
  store i32 %27, ptr %29, align 4
  %indvars.iv.next = add nsw i64 %indvars.iv, 1
  %30 = load i32, ptr %8, align 4
  %31 = sext i32 %30 to i64
  %.not.not = icmp slt i64 %indvars.iv, %31
  br i1 %.not.not, label %.lr.ph, label %._crit_edge

._crit_edge:                                      ; preds = %.lr.ph, %15
  call void @__kmpc_for_static_fini(ptr nonnull @1, i32 %18)
  br label %32

32:                                               ; preds = %._crit_edge, %6
  ret void
}